; Function Attrs: mustprogress uwtable
define void @_ZN3gmx12AtomsRemover16refreshAtomCountERK7t_atoms(ptr noundef nonnull align 8 dereferenceable(24) %0, ptr noundef nonnull readonly align 8 captures(none) dereferenceable(72) %1) local_unnamed_addr #2 align 2 personality ptr @__gxx_personality_v0 {
  %3 = alloca i8, align 1
  %4 = load i32, ptr %1, align 8, !tbaa !13
  %5 = sext i32 %4 to i64
  call void @llvm.lifetime.start.p0(i64 1, ptr nonnull %3) #20
  store i8 0, ptr %3, align 1, !tbaa !47
  %6 = getelementptr inbounds nuw i8, ptr %0, i64 8
  %7 = load ptr, ptr %6, align 8, !tbaa !64
  %8 = load ptr, ptr %0, align 8, !tbaa !61
  %9 = ptrtoint ptr %7 to i64
  %10 = ptrtoint ptr %8 to i64
  %11 = sub i64 %9, %10
  %12 = icmp ult i64 %11, %5
  br i1 %12, label %13, label %15

13:                                               ; preds = %2
  %14 = sub nuw i64 %5, %11
  call void @_ZNSt6vectorIcSaIcEE14_M_fill_insertEN9__gnu_cxx17__normal_iteratorIPcS1_EEmRKc(ptr noundef nonnull align 8 dereferenceable(24) %0, ptr %7, i64 noundef %14, ptr noundef nonnull align 1 dereferenceable(1) %3)
  br label %_ZNSt6vectorIcSaIcEE6resizeEmRKc.exit

15:                                               ; preds = %2
  %16 = icmp ugt i64 %11, %5
  br i1 %16, label %17, label %_ZNSt6vectorIcSaIcEE6resizeEmRKc.exit

17:                                               ; preds = %15
  %18 = getelementptr inbounds nuw i8, ptr %8, i64 %5
  %.not.i.i = icmp eq ptr %7, %18
  br i1 %.not.i.i, label %_ZNSt6vectorIcSaIcEE6resizeEmRKc.exit, label %19

19:                                               ; preds = %17
  store ptr %18, ptr %6, align 8, !tbaa !64
  br label %_ZNSt6vectorIcSaIcEE6resizeEmRKc.exit

_ZNSt6vectorIcSaIcEE6resizeEmRKc.exit:            ; preds = %13, %15, %17, %19
  call void @llvm.lifetime.end.p0(i64 1, ptr nonnull %3) #20
  ret void
}